; Function Attrs: cold nounwind optsize uwtable
define internal range(i32 -12, 1) i32 @preinit(ptr noundef readonly captures(none) %0) #0 {
  %2 = getelementptr inbounds nuw i8, ptr %0, i64 72
  %3 = load ptr, ptr %2, align 8, !tbaa !4
  %4 = tail call ptr @sws_alloc_context() #14
  %5 = getelementptr inbounds nuw i8, ptr %3, i64 8
  store ptr %4, ptr %5, align 8, !tbaa !20
  %.not = icmp eq ptr %4, null
  br i1 %.not, label %9, label %6

6:                                                ; preds = %1
  %7 = getelementptr inbounds nuw i8, ptr %4, i64 40
  store i32 0, ptr %7, align 8, !tbaa !29
  %8 = getelementptr inbounds nuw i8, ptr %3, i64 16
  tail call void @ff_framesync_preinit(ptr noundef nonnull %8) #14
  br label %9

9:                                                ; preds = %1, %6
  %.0 = phi i32 [ 0, %6 ], [ -12, %1 ]
  ret i32 %.0
}